target datalayout = "e-m:e-p270:32:32-p271:32:32-p272:64:64-i64:64-i128:128-f80:128-n8:16:32:64-S128"
target triple = "x86_64-unknown-linux-gnu"

%"class.std::unique_ptr" = type { %"struct.std::__uniq_ptr_data" }
%"struct.std::__uniq_ptr_data" = type { %"class.std::__uniq_ptr_impl" }
%"class.std::__uniq_ptr_impl" = type { %"class.std::tuple" }
%"class.std::tuple" = type { %"struct.std::_Tuple_impl" }
%"struct.std::_Tuple_impl" = type { %"struct.std::_Head_base.1" }
%"struct.std::_Head_base.1" = type { ptr }
%"class.base::BasicStringPiece" = type { ptr, i64 }

@_ZN3net15P256KeyExchangeC1EP9ec_key_stPKh = dso_local unnamed_addr alias void (ptr, ptr, ptr), ptr @_ZN3net15P256KeyExchangeC2EP9ec_key_stPKh

; Function Attrs: mustprogress nounwind uwtable
define linkonce_odr dso_local noundef nonnull align 8 dereferenceable(8) ptr @_ZNSt10_Head_baseILm0EP9ec_key_stLb0EE7_M_headERS2_(ptr noundef nonnull align 8 dereferenceable(8) %__b) #0 comdat align 2 {
entry:
  %__b.addr = alloca ptr, align 8
  store ptr %__b, ptr %__b.addr, align 8
  %0 = load ptr, ptr %__b.addr, align 8
  %_M_head_impl = getelementptr inbounds %"struct.std::_Head_base.1", ptr %0, i32 0, i32 0
  ret ptr %_M_head_impl
}

; Function Attrs: mustprogress nounwind uwtable
define linkonce_odr dso_local void @_ZNSt10_Head_baseILm1EN6crypto16OpenSSLDestroyerI9ec_key_stXadL_Z11EC_KEY_freeEEEELb1EEC2Ev(ptr noundef nonnull align 1 dereferenceable(1) %this) unnamed_addr #0 comdat align 2 {
entry:
  %this.addr = alloca ptr, align 8
  store ptr %this, ptr %this.addr, align 8
  ret void
}

; Function Attrs: mustprogress nounwind uwtable
define linkonce_odr dso_local noundef nonnull align 8 dereferenceable(8) ptr @_ZNSt11_Tuple_implILm0EJP9ec_key_stN6crypto16OpenSSLDestroyerIS0_XadL_Z11EC_KEY_freeEEEEEE7_M_headERS5_(ptr noundef nonnull align 8 dereferenceable(8) %__t) #0 comdat align 2 {
entry:
  %__t.addr = alloca ptr, align 8
  store ptr %__t, ptr %__t.addr, align 8
  %0 = load ptr, ptr %__t.addr, align 8
  %call = call noundef nonnull align 8 dereferenceable(8) ptr @_ZNSt10_Head_baseILm0EP9ec_key_stLb0EE7_M_headERS2_(ptr noundef nonnull align 8 dereferenceable(8) %0) #9
  ret ptr %call
}

; Function Attrs: mustprogress nounwind uwtable
define linkonce_odr dso_local noundef nonnull align 8 dereferenceable(8) ptr @_ZNSt10_Head_baseILm0EP9ec_key_stLb0EE7_M_headERKS2_(ptr noundef nonnull align 8 dereferenceable(8) %__b) #0 comdat align 2 {
entry:
  %__b.addr = alloca ptr, align 8
  store ptr %__b, ptr %__b.addr, align 8
  %0 = load ptr, ptr %__b.addr, align 8
  %_M_head_impl = getelementptr inbounds %"struct.std::_Head_base.1", ptr %0, i32 0, i32 0
  ret ptr %_M_head_impl
}

; Function Attrs: mustprogress nounwind uwtable
define linkonce_odr dso_local void @_ZNSt10_Head_baseILm0EP9ec_key_stLb0EEC2Ev(ptr noundef nonnull align 8 dereferenceable(8) %this) unnamed_addr #0 comdat align 2 {
entry:
  %this.addr = alloca ptr, align 8
  store ptr %this, ptr %this.addr, align 8
  %this1 = load ptr, ptr %this.addr, align 8
  %_M_head_impl = getelementptr inbounds %"struct.std::_Head_base.1", ptr %this1, i32 0, i32 0
  store ptr null, ptr %_M_head_impl, align 8
  ret void
}

; Function Attrs: mustprogress uwtable
define linkonce_odr dso_local void @_ZNSt11_Tuple_implILm1EJN6crypto16OpenSSLDestroyerI9ec_key_stXadL_Z11EC_KEY_freeEEEEEEC2Ev(ptr noundef nonnull align 1 dereferenceable(1) %this) unnamed_addr #3 comdat align 2 {
entry:
  %this.addr = alloca ptr, align 8
  store ptr %this, ptr %this.addr, align 8
  %this1 = load ptr, ptr %this.addr, align 8
  call void @_ZNSt10_Head_baseILm1EN6crypto16OpenSSLDestroyerI9ec_key_stXadL_Z11EC_KEY_freeEEEELb1EEC2Ev(ptr noundef nonnull align 1 dereferenceable(1) %this1)
  ret void
}

; Function Attrs: mustprogress nounwind uwtable
define linkonce_odr dso_local noundef nonnull align 8 dereferenceable(8) ptr @_ZSt12__get_helperILm0EP9ec_key_stJN6crypto16OpenSSLDestroyerIS0_XadL_Z11EC_KEY_freeEEEEEERT0_RSt11_Tuple_implIXT_EJS5_DpT1_EE(ptr noundef nonnull align 8 dereferenceable(8) %__t) #0 comdat {
entry:
  %__t.addr = alloca ptr, align 8
  store ptr %__t, ptr %__t.addr, align 8
  %0 = load ptr, ptr %__t.addr, align 8
  %call = call noundef nonnull align 8 dereferenceable(8) ptr @_ZNSt11_Tuple_implILm0EJP9ec_key_stN6crypto16OpenSSLDestroyerIS0_XadL_Z11EC_KEY_freeEEEEEE7_M_headERS5_(ptr noundef nonnull align 8 dereferenceable(8) %0) #9
  ret ptr %call
}

; Function Attrs: mustprogress nounwind uwtable
define linkonce_odr dso_local noundef nonnull align 8 dereferenceable(8) ptr @_ZNSt11_Tuple_implILm0EJP9ec_key_stN6crypto16OpenSSLDestroyerIS0_XadL_Z11EC_KEY_freeEEEEEE7_M_headERKS5_(ptr noundef nonnull align 8 dereferenceable(8) %__t) #0 comdat align 2 {
entry:
  %__t.addr = alloca ptr, align 8
  store ptr %__t, ptr %__t.addr, align 8
  %0 = load ptr, ptr %__t.addr, align 8
  %call = call noundef nonnull align 8 dereferenceable(8) ptr @_ZNSt10_Head_baseILm0EP9ec_key_stLb0EE7_M_headERKS2_(ptr noundef nonnull align 8 dereferenceable(8) %0) #9
  ret ptr %call
}

; Function Attrs: mustprogress uwtable
define linkonce_odr dso_local void @_ZNSt11_Tuple_implILm0EJP9ec_key_stN6crypto16OpenSSLDestroyerIS0_XadL_Z11EC_KEY_freeEEEEEEC2Ev(ptr noundef nonnull align 8 dereferenceable(8) %this) unnamed_addr #3 comdat align 2 {
entry:
  %this.addr = alloca ptr, align 8
  store ptr %this, ptr %this.addr, align 8
  %this1 = load ptr, ptr %this.addr, align 8
  call void @_ZNSt11_Tuple_implILm1EJN6crypto16OpenSSLDestroyerI9ec_key_stXadL_Z11EC_KEY_freeEEEEEEC2Ev(ptr noundef nonnull align 1 dereferenceable(1) %this1)
  call void @_ZNSt10_Head_baseILm0EP9ec_key_stLb0EEC2Ev(ptr noundef nonnull align 8 dereferenceable(8) %this1)
  ret void
}

; Function Attrs: mustprogress nounwind uwtable
define linkonce_odr dso_local noundef nonnull align 8 dereferenceable(8) ptr @_ZSt3getILm0EJP9ec_key_stN6crypto16OpenSSLDestroyerIS0_XadL_Z11EC_KEY_freeEEEEEERNSt13tuple_elementIXT_ESt5tupleIJDpT0_EEE4typeERS9_(ptr noundef nonnull align 8 dereferenceable(8) %__t) #0 comdat {
entry:
  %__t.addr = alloca ptr, align 8
  store ptr %__t, ptr %__t.addr, align 8
  %0 = load ptr, ptr %__t.addr, align 8
  %call = call noundef nonnull align 8 dereferenceable(8) ptr @_ZSt12__get_helperILm0EP9ec_key_stJN6crypto16OpenSSLDestroyerIS0_XadL_Z11EC_KEY_freeEEEEEERT0_RSt11_Tuple_implIXT_EJS5_DpT1_EE(ptr noundef nonnull align 8 dereferenceable(8) %0) #9
  ret ptr %call
}

; Function Attrs: mustprogress nounwind uwtable
define linkonce_odr dso_local noundef nonnull align 8 dereferenceable(8) ptr @_ZSt12__get_helperILm0EP9ec_key_stJN6crypto16OpenSSLDestroyerIS0_XadL_Z11EC_KEY_freeEEEEEERKT0_RKSt11_Tuple_implIXT_EJS5_DpT1_EE(ptr noundef nonnull align 8 dereferenceable(8) %__t) #0 comdat {
entry:
  %__t.addr = alloca ptr, align 8
  store ptr %__t, ptr %__t.addr, align 8
  %0 = load ptr, ptr %__t.addr, align 8
  %call = call noundef nonnull align 8 dereferenceable(8) ptr @_ZNSt11_Tuple_implILm0EJP9ec_key_stN6crypto16OpenSSLDestroyerIS0_XadL_Z11EC_KEY_freeEEEEEE7_M_headERKS5_(ptr noundef nonnull align 8 dereferenceable(8) %0) #9
  ret ptr %call
}

; Function Attrs: mustprogress nounwind uwtable
define linkonce_odr dso_local void @_ZNSt5tupleIJP9ec_key_stN6crypto16OpenSSLDestroyerIS0_XadL_Z11EC_KEY_freeEEEEEEC2ILb1ETnNSt9enable_ifIXclsr17_TupleConstraintsIXT_ES1_S4_EE37__is_implicitly_default_constructibleEEbE4typeELb1EEEv(ptr noundef nonnull align 8 dereferenceable(8) %this) unnamed_addr #0 comdat align 2 personality ptr @__gxx_personality_v0 {
entry:
  %this.addr = alloca ptr, align 8
  store ptr %this, ptr %this.addr, align 8
  %this1 = load ptr, ptr %this.addr, align 8
  invoke void @_ZNSt11_Tuple_implILm0EJP9ec_key_stN6crypto16OpenSSLDestroyerIS0_XadL_Z11EC_KEY_freeEEEEEEC2Ev(ptr noundef nonnull align 8 dereferenceable(8) %this1)
          to label %invoke.cont unwind label %terminate.lpad

invoke.cont:                                      ; preds = %entry
  ret void

terminate.lpad:                                   ; preds = %entry
  %0 = landingpad { ptr, i32 }
          catch ptr null
  %1 = extractvalue { ptr, i32 } %0, 0
  call void @__clang_call_terminate(ptr %1) #10
  unreachable
}

; Function Attrs: mustprogress nounwind uwtable
define linkonce_odr dso_local noundef nonnull align 8 dereferenceable(8) ptr @_ZNSt15__uniq_ptr_implI9ec_key_stN6crypto16OpenSSLDestroyerIS0_XadL_Z11EC_KEY_freeEEEEE6_M_ptrEv(ptr noundef nonnull align 8 dereferenceable(8) %this) #0 comdat align 2 {
entry:
  %this.addr = alloca ptr, align 8
  store ptr %this, ptr %this.addr, align 8
  %this1 = load ptr, ptr %this.addr, align 8
  %_M_t = getelementptr inbounds %"class.std::__uniq_ptr_impl", ptr %this1, i32 0, i32 0
  %call = call noundef nonnull align 8 dereferenceable(8) ptr @_ZSt3getILm0EJP9ec_key_stN6crypto16OpenSSLDestroyerIS0_XadL_Z11EC_KEY_freeEEEEEERNSt13tuple_elementIXT_ESt5tupleIJDpT0_EEE4typeERS9_(ptr noundef nonnull align 8 dereferenceable(8) %_M_t) #9
  ret ptr %call
}

; Function Attrs: mustprogress nounwind uwtable
define linkonce_odr dso_local noundef nonnull align 8 dereferenceable(8) ptr @_ZSt3getILm0EJP9ec_key_stN6crypto16OpenSSLDestroyerIS0_XadL_Z11EC_KEY_freeEEEEEERKNSt13tuple_elementIXT_ESt5tupleIJDpT0_EEE4typeERKS9_(ptr noundef nonnull align 8 dereferenceable(8) %__t) #0 comdat {
entry:
  %__t.addr = alloca ptr, align 8
  store ptr %__t, ptr %__t.addr, align 8
  %0 = load ptr, ptr %__t.addr, align 8
  %call = call noundef nonnull align 8 dereferenceable(8) ptr @_ZSt12__get_helperILm0EP9ec_key_stJN6crypto16OpenSSLDestroyerIS0_XadL_Z11EC_KEY_freeEEEEEERKT0_RKSt11_Tuple_implIXT_EJS5_DpT1_EE(ptr noundef nonnull align 8 dereferenceable(8) %0) #9
  ret ptr %call
}

; Function Attrs: mustprogress nounwind uwtable
define linkonce_odr dso_local void @_ZNSt15__uniq_ptr_implI9ec_key_stN6crypto16OpenSSLDestroyerIS0_XadL_Z11EC_KEY_freeEEEEEC2EPS0_(ptr noundef nonnull align 8 dereferenceable(8) %this, ptr noundef %__p) unnamed_addr #0 comdat align 2 {
entry:
  %this.addr = alloca ptr, align 8
  %__p.addr = alloca ptr, align 8
  store ptr %this, ptr %this.addr, align 8
  store ptr %__p, ptr %__p.addr, align 8
  %this1 = load ptr, ptr %this.addr, align 8
  %_M_t = getelementptr inbounds %"class.std::__uniq_ptr_impl", ptr %this1, i32 0, i32 0
  call void @_ZNSt5tupleIJP9ec_key_stN6crypto16OpenSSLDestroyerIS0_XadL_Z11EC_KEY_freeEEEEEEC2ILb1ETnNSt9enable_ifIXclsr17_TupleConstraintsIXT_ES1_S4_EE37__is_implicitly_default_constructibleEEbE4typeELb1EEEv(ptr noundef nonnull align 8 dereferenceable(8) %_M_t) #9
  %0 = load ptr, ptr %__p.addr, align 8
  %call = call noundef nonnull align 8 dereferenceable(8) ptr @_ZNSt15__uniq_ptr_implI9ec_key_stN6crypto16OpenSSLDestroyerIS0_XadL_Z11EC_KEY_freeEEEEE6_M_ptrEv(ptr noundef nonnull align 8 dereferenceable(8) %this1) #9
  store ptr %0, ptr %call, align 8
  ret void
}

; Function Attrs: mustprogress nounwind uwtable
define linkonce_odr dso_local noundef ptr @_ZNSt15__uniq_ptr_implI9ec_key_stN6crypto16OpenSSLDestroyerIS0_XadL_Z11EC_KEY_freeEEEEE7releaseEv(ptr noundef nonnull align 8 dereferenceable(8) %this) #0 comdat align 2 {
entry:
  %this.addr = alloca ptr, align 8
  %__p = alloca ptr, align 8
  store ptr %this, ptr %this.addr, align 8
  %this1 = load ptr, ptr %this.addr, align 8
  %call = call noundef nonnull align 8 dereferenceable(8) ptr @_ZNSt15__uniq_ptr_implI9ec_key_stN6crypto16OpenSSLDestroyerIS0_XadL_Z11EC_KEY_freeEEEEE6_M_ptrEv(ptr noundef nonnull align 8 dereferenceable(8) %this1) #9
  %0 = load ptr, ptr %call, align 8
  store ptr %0, ptr %__p, align 8
  %call2 = call noundef nonnull align 8 dereferenceable(8) ptr @_ZNSt15__uniq_ptr_implI9ec_key_stN6crypto16OpenSSLDestroyerIS0_XadL_Z11EC_KEY_freeEEEEE6_M_ptrEv(ptr noundef nonnull align 8 dereferenceable(8) %this1) #9
  store ptr null, ptr %call2, align 8
  %1 = load ptr, ptr %__p, align 8
  ret ptr %1
}

; Function Attrs: mustprogress nounwind uwtable
define linkonce_odr dso_local noundef ptr @_ZNKSt15__uniq_ptr_implI9ec_key_stN6crypto16OpenSSLDestroyerIS0_XadL_Z11EC_KEY_freeEEEEE6_M_ptrEv(ptr noundef nonnull align 8 dereferenceable(8) %this) #0 comdat align 2 {
entry:
  %this.addr = alloca ptr, align 8
  store ptr %this, ptr %this.addr, align 8
  %this1 = load ptr, ptr %this.addr, align 8
  %_M_t = getelementptr inbounds %"class.std::__uniq_ptr_impl", ptr %this1, i32 0, i32 0
  %call = call noundef nonnull align 8 dereferenceable(8) ptr @_ZSt3getILm0EJP9ec_key_stN6crypto16OpenSSLDestroyerIS0_XadL_Z11EC_KEY_freeEEEEEERKNSt13tuple_elementIXT_ESt5tupleIJDpT0_EEE4typeERKS9_(ptr noundef nonnull align 8 dereferenceable(8) %_M_t) #9
  %0 = load ptr, ptr %call, align 8
  ret ptr %0
}

; Function Attrs: mustprogress uwtable
define linkonce_odr dso_local void @_ZNSt15__uniq_ptr_dataI9ec_key_stN6crypto16OpenSSLDestroyerIS0_XadL_Z11EC_KEY_freeEEEELb1ELb1EECI2St15__uniq_ptr_implIS0_S3_EEPS0_(ptr noundef nonnull align 8 dereferenceable(8) %this, ptr noundef %0) unnamed_addr #3 comdat align 2 {
entry:
  %this.addr = alloca ptr, align 8
  %.addr = alloca ptr, align 8
  store ptr %this, ptr %this.addr, align 8
  store ptr %0, ptr %.addr, align 8
  %this1 = load ptr, ptr %this.addr, align 8
  %1 = load ptr, ptr %.addr, align 8
  call void @_ZNSt15__uniq_ptr_implI9ec_key_stN6crypto16OpenSSLDestroyerIS0_XadL_Z11EC_KEY_freeEEEEEC2EPS0_(ptr noundef nonnull align 8 dereferenceable(8) %this1, ptr noundef %1)
  ret void
}

; Function Attrs: mustprogress nounwind uwtable
define linkonce_odr dso_local noundef ptr @_ZNSt10unique_ptrI9ec_key_stN6crypto16OpenSSLDestroyerIS0_XadL_Z11EC_KEY_freeEEEEE7releaseEv(ptr noundef nonnull align 8 dereferenceable(8) %this) #0 comdat align 2 {
entry:
  %this.addr = alloca ptr, align 8
  store ptr %this, ptr %this.addr, align 8
  %this1 = load ptr, ptr %this.addr, align 8
  %_M_t = getelementptr inbounds %"class.std::unique_ptr", ptr %this1, i32 0, i32 0
  %call = call noundef ptr @_ZNSt15__uniq_ptr_implI9ec_key_stN6crypto16OpenSSLDestroyerIS0_XadL_Z11EC_KEY_freeEEEEE7releaseEv(ptr noundef nonnull align 8 dereferenceable(8) %_M_t) #9
  ret ptr %call
}

; Function Attrs: mustprogress nounwind uwtable
define linkonce_odr dso_local noundef ptr @_ZNKSt10unique_ptrI9ec_key_stN6crypto16OpenSSLDestroyerIS0_XadL_Z11EC_KEY_freeEEEEE3getEv(ptr noundef nonnull align 8 dereferenceable(8) %this) #0 comdat align 2 {
entry:
  %this.addr = alloca ptr, align 8
  store ptr %this, ptr %this.addr, align 8
  %this1 = load ptr, ptr %this.addr, align 8
  %_M_t = getelementptr inbounds %"class.std::unique_ptr", ptr %this1, i32 0, i32 0
  %call = call noundef ptr @_ZNKSt15__uniq_ptr_implI9ec_key_stN6crypto16OpenSSLDestroyerIS0_XadL_Z11EC_KEY_freeEEEEE6_M_ptrEv(ptr noundef nonnull align 8 dereferenceable(8) %_M_t) #9
  ret ptr %call
}

; Function Attrs: mustprogress nounwind uwtable
define linkonce_odr dso_local void @_ZNSt10unique_ptrI9ec_key_stN6crypto16OpenSSLDestroyerIS0_XadL_Z11EC_KEY_freeEEEEEC2IS3_vEEPS0_(ptr noundef nonnull align 8 dereferenceable(8) %this, ptr noundef %__p) unnamed_addr #0 comdat align 2 personality ptr @__gxx_personality_v0 {
entry:
  %this.addr = alloca ptr, align 8
  %__p.addr = alloca ptr, align 8
  store ptr %this, ptr %this.addr, align 8
  store ptr %__p, ptr %__p.addr, align 8
  %this1 = load ptr, ptr %this.addr, align 8
  %_M_t = getelementptr inbounds %"class.std::unique_ptr", ptr %this1, i32 0, i32 0
  %0 = load ptr, ptr %__p.addr, align 8
  invoke void @_ZNSt15__uniq_ptr_dataI9ec_key_stN6crypto16OpenSSLDestroyerIS0_XadL_Z11EC_KEY_freeEEEELb1ELb1EECI2St15__uniq_ptr_implIS0_S3_EEPS0_(ptr noundef nonnull align 8 dereferenceable(8) %_M_t, ptr noundef %0)
          to label %invoke.cont unwind label %terminate.lpad

invoke.cont:                                      ; preds = %entry
  ret void

terminate.lpad:                                   ; preds = %entry
  %1 = landingpad { ptr, i32 }
          catch ptr null
  %2 = extractvalue { ptr, i32 } %1, 0
  call void @__clang_call_terminate(ptr %2) #10
  unreachable
}

; Function Attrs: mustprogress uwtable
define dso_local noundef ptr @_ZN3net15P256KeyExchange3NewEN4base16BasicStringPieceINSt7__cxx1112basic_stringIcSt11char_traitsIcESaIcEEEEE(ptr %key.coerce0, i64 %key.coerce1) #3 align 2 personality ptr @__gxx_personality_v0 {
entry:
  %retval = alloca ptr, align 8
  %key = alloca %"class.base::BasicStringPiece", align 8
  %keyp = alloca ptr, align 8
  %private_key = alloca %"class.std::unique_ptr", align 8
  %exn.slot = alloca ptr, align 8
  %ehselector.slot = alloca i32, align 4
  %cleanup.dest.slot = alloca i32, align 4
  %public_key = alloca [65 x i8], align 16
  %0 = getelementptr inbounds { ptr, i64 }, ptr %key, i32 0, i32 0
  store ptr %key.coerce0, ptr %0, align 8
  %1 = getelementptr inbounds { ptr, i64 }, ptr %key, i32 0, i32 1
  store i64 %key.coerce1, ptr %1, align 8
  %call = call noundef zeroext i1 @_ZNK4base16BasicStringPieceINSt7__cxx1112basic_stringIcSt11char_traitsIcESaIcEEEE5emptyEv(ptr noundef nonnull align 8 dereferenceable(16) %key)
  br i1 %call, label %if.then, label %if.end

if.then:                                          ; preds = %entry
  store ptr null, ptr %retval, align 8
  br label %return

if.end:                                           ; preds = %entry
  %call1 = call noundef ptr @_ZNK4base16BasicStringPieceINSt7__cxx1112basic_stringIcSt11char_traitsIcESaIcEEEE4dataEv(ptr noundef nonnull align 8 dereferenceable(16) %key)
  store ptr %call1, ptr %keyp, align 8
  %call2 = call noundef i64 @_ZNK4base16BasicStringPieceINSt7__cxx1112basic_stringIcSt11char_traitsIcESaIcEEEE4sizeEv(ptr noundef nonnull align 8 dereferenceable(16) %key)
  %call3 = call ptr @d2i_ECPrivateKey(ptr noundef null, ptr noundef %keyp, i64 noundef %call2)
  call void @_ZNSt10unique_ptrI9ec_key_stN6crypto16OpenSSLDestroyerIS0_XadL_Z11EC_KEY_freeEEEEEC2IS3_vEEPS0_(ptr noundef nonnull align 8 dereferenceable(8) %private_key, ptr noundef %call3) #9
  %call4 = call noundef ptr @_ZNKSt10unique_ptrI9ec_key_stN6crypto16OpenSSLDestroyerIS0_XadL_Z11EC_KEY_freeEEEEE3getEv(ptr noundef nonnull align 8 dereferenceable(8) %private_key) #9
  %tobool = icmp ne ptr %call4, null
  br i1 %tobool, label %lor.lhs.false, label %if.then8

lor.lhs.false:                                    ; preds = %if.end
  %call5 = call noundef ptr @_ZNKSt10unique_ptrI9ec_key_stN6crypto16OpenSSLDestroyerIS0_XadL_Z11EC_KEY_freeEEEEE3getEv(ptr noundef nonnull align 8 dereferenceable(8) %private_key) #9
  %call6 = invoke i32 @EC_KEY_check_key(ptr noundef %call5)
          to label %invoke.cont unwind label %lpad

invoke.cont:                                      ; preds = %lor.lhs.false
  %tobool7 = icmp ne i32 %call6, 0
  br i1 %tobool7, label %if.end9, label %if.then8

if.then8:                                         ; preds = %invoke.cont, %if.end
  store ptr null, ptr %retval, align 8
  store i32 1, ptr %cleanup.dest.slot, align 4
  br label %cleanup

lpad:                                             ; preds = %if.end19, %invoke.cont14, %invoke.cont11, %if.end9, %lor.lhs.false
  %2 = landingpad { ptr, i32 }
          cleanup
  %3 = extractvalue { ptr, i32 } %2, 0
  store ptr %3, ptr %exn.slot, align 8
  %4 = extractvalue { ptr, i32 } %2, 1
  store i32 %4, ptr %ehselector.slot, align 4
  br label %ehcleanup

if.end9:                                          ; preds = %invoke.cont
  %call10 = call noundef ptr @_ZNKSt10unique_ptrI9ec_key_stN6crypto16OpenSSLDestroyerIS0_XadL_Z11EC_KEY_freeEEEEE3getEv(ptr noundef nonnull align 8 dereferenceable(8) %private_key) #9
  %call12 = invoke ptr @EC_KEY_get0_group(ptr noundef %call10)
          to label %invoke.cont11 unwind label %lpad

invoke.cont11:                                    ; preds = %if.end9
  %call13 = call noundef ptr @_ZNKSt10unique_ptrI9ec_key_stN6crypto16OpenSSLDestroyerIS0_XadL_Z11EC_KEY_freeEEEEE3getEv(ptr noundef nonnull align 8 dereferenceable(8) %private_key) #9
  %call15 = invoke ptr @EC_KEY_get0_public_key(ptr noundef %call13)
          to label %invoke.cont14 unwind label %lpad

invoke.cont14:                                    ; preds = %invoke.cont11
  %arraydecay = getelementptr inbounds [65 x i8], ptr %public_key, i64 0, i64 0
  %call17 = invoke i64 @EC_POINT_point2oct(ptr noundef %call12, ptr noundef %call15, i32 noundef 4, ptr noundef %arraydecay, i64 noundef 65, ptr noundef null)
          to label %invoke.cont16 unwind label %lpad

invoke.cont16:                                    ; preds = %invoke.cont14
  %cmp = icmp ne i64 %call17, 65
  br i1 %cmp, label %if.then18, label %if.end19

if.then18:                                        ; preds = %invoke.cont16
  store ptr null, ptr %retval, align 8
  store i32 1, ptr %cleanup.dest.slot, align 4
  br label %cleanup

if.end19:                                         ; preds = %invoke.cont16
  %call21 = invoke noalias noundef nonnull ptr @_Znwm(i64 noundef 88) #12
          to label %invoke.cont20 unwind label %lpad

invoke.cont20:                                    ; preds = %if.end19
  %call22 = call noundef ptr @_ZNSt10unique_ptrI9ec_key_stN6crypto16OpenSSLDestroyerIS0_XadL_Z11EC_KEY_freeEEEEE7releaseEv(ptr noundef nonnull align 8 dereferenceable(8) %private_key) #9
  %arraydecay23 = getelementptr inbounds [65 x i8], ptr %public_key, i64 0, i64 0
  invoke void @_ZN3net15P256KeyExchangeC1EP9ec_key_stPKh(ptr noundef nonnull align 8 dereferenceable(81) %call21, ptr noundef %call22, ptr noundef %arraydecay23)
          to label %invoke.cont25 unwind label %lpad24

invoke.cont25:                                    ; preds = %invoke.cont20
  store ptr %call21, ptr %retval, align 8
  store i32 1, ptr %cleanup.dest.slot, align 4
  br label %cleanup

lpad24:                                           ; preds = %invoke.cont20
  %5 = landingpad { ptr, i32 }
          cleanup
  %6 = extractvalue { ptr, i32 } %5, 0
  store ptr %6, ptr %exn.slot, align 8
  %7 = extractvalue { ptr, i32 } %5, 1
  store i32 %7, ptr %ehselector.slot, align 4
  call void @_ZdlPv(ptr noundef %call21) #11
  br label %ehcleanup

cleanup:                                          ; preds = %invoke.cont25, %if.then18, %if.then8
  call void @_ZNSt10unique_ptrI9ec_key_stN6crypto16OpenSSLDestroyerIS0_XadL_Z11EC_KEY_freeEEEEED2Ev(ptr noundef nonnull align 8 dereferenceable(8) %private_key) #9
  br label %return

ehcleanup:                                        ; preds = %lpad24, %lpad
  call void @_ZNSt10unique_ptrI9ec_key_stN6crypto16OpenSSLDestroyerIS0_XadL_Z11EC_KEY_freeEEEEED2Ev(ptr noundef nonnull align 8 dereferenceable(8) %private_key) #9
  br label %eh.resume

return:                                           ; preds = %cleanup, %if.then
  %8 = load ptr, ptr %retval, align 8
  ret ptr %8

eh.resume:                                        ; preds = %ehcleanup
  %exn = load ptr, ptr %exn.slot, align 8
  %sel = load i32, ptr %ehselector.slot, align 4
  %lpad.val = insertvalue { ptr, i32 } poison, ptr %exn, 0
  %lpad.val26 = insertvalue { ptr, i32 } %lpad.val, i32 %sel, 1
  resume { ptr, i32 } %lpad.val26
}