; Function Attrs: mustprogress uwtable
define dso_local noalias noundef ptr @_ZN3net15P256KeyExchange3NewEN4base16BasicStringPieceINSt7__cxx1112basic_stringIcSt11char_traitsIcESaIcEEEEE(ptr %key.coerce0, i64 %key.coerce1) local_unnamed_addr #4 align 2 personality ptr @__gxx_personality_v0 {
entry:
  %key = alloca %"class.base::BasicStringPiece", align 8
  %keyp = alloca ptr, align 8
  %private_key = alloca %"class.std::unique_ptr", align 8
  %public_key = alloca [65 x i8], align 16
  store ptr %key.coerce0, ptr %key, align 8
  %0 = getelementptr inbounds i8, ptr %key, i64 8
  store i64 %key.coerce1, ptr %0, align 8
  %call = call noundef zeroext i1 @_ZNK4base16BasicStringPieceINSt7__cxx1112basic_stringIcSt11char_traitsIcESaIcEEEE5emptyEv(ptr noundef nonnull align 8 dereferenceable(16) %key)
  br i1 %call, label %return, label %if.end

if.end:                                           ; preds = %entry
  %call1 = call noundef ptr @_ZNK4base16BasicStringPieceINSt7__cxx1112basic_stringIcSt11char_traitsIcESaIcEEEE4dataEv(ptr noundef nonnull align 8 dereferenceable(16) %key)
  store ptr %call1, ptr %keyp, align 8
  %call2 = call noundef i64 @_ZNK4base16BasicStringPieceINSt7__cxx1112basic_stringIcSt11char_traitsIcESaIcEEEE4sizeEv(ptr noundef nonnull align 8 dereferenceable(16) %key)
  %call3 = call ptr @d2i_ECPrivateKey(ptr noundef null, ptr noundef nonnull %keyp, i64 noundef %call2)
  store ptr %call3, ptr %private_key, align 8
  %tobool.not = icmp eq ptr %call3, null
  br i1 %tobool.not, label %return, label %lor.lhs.false

lor.lhs.false:                                    ; preds = %if.end
  %call6 = invoke i32 @EC_KEY_check_key(ptr noundef nonnull %call3)
          to label %invoke.cont unwind label %lpad

invoke.cont:                                      ; preds = %lor.lhs.false
  %tobool7.not = icmp eq i32 %call6, 0
  br i1 %tobool7.not, label %if.then.i, label %if.end9

lpad:                                             ; preds = %if.end19, %invoke.cont14, %invoke.cont11, %if.end9, %lor.lhs.false
  %1 = landingpad { ptr, i32 }
          cleanup
  call void @_ZNSt10unique_ptrI9ec_key_stN6crypto16OpenSSLDestroyerIS0_XadL_Z11EC_KEY_freeEEEEED2Ev(ptr noundef nonnull align 8 dereferenceable(8) %private_key) #12
  resume { ptr, i32 } %1

if.end9:                                          ; preds = %invoke.cont
  %call12 = invoke ptr @EC_KEY_get0_group(ptr noundef nonnull %call3)
          to label %invoke.cont11 unwind label %lpad

invoke.cont11:                                    ; preds = %if.end9
  %call15 = invoke ptr @EC_KEY_get0_public_key(ptr noundef nonnull %call3)
          to label %invoke.cont14 unwind label %lpad

invoke.cont14:                                    ; preds = %invoke.cont11
  %call17 = invoke i64 @EC_POINT_point2oct(ptr noundef %call12, ptr noundef %call15, i32 noundef 4, ptr noundef nonnull %public_key, i64 noundef 65, ptr noundef null)
          to label %invoke.cont16 unwind label %lpad

invoke.cont16:                                    ; preds = %invoke.cont14
  %cmp.not = icmp eq i64 %call17, 65
  br i1 %cmp.not, label %if.end19, label %if.then.i

if.end19:                                         ; preds = %invoke.cont16
  %call21 = invoke noalias noundef nonnull dereferenceable(88) ptr @_Znwm(i64 noundef 88) #13
          to label %cleanup unwind label %lpad

cleanup:                                          ; preds = %if.end19
  store ptr getelementptr inbounds ({ [8 x ptr] }, ptr @_ZTVN3net15P256KeyExchangeE, i64 0, i32 0, i64 2), ptr %call21, align 8
  %private_key_.i = getelementptr inbounds i8, ptr %call21, i64 8
  store ptr %call3, ptr %private_key_.i, align 8
  %public_key_.i = getelementptr inbounds i8, ptr %call21, i64 16
  call void @llvm.memcpy.p0.p0.i64(ptr noundef nonnull align 8 dereferenceable(65) %public_key_.i, ptr noundef nonnull align 16 dereferenceable(65) %public_key, i64 65, i1 false)
  br label %return

if.then.i:                                        ; preds = %invoke.cont16, %invoke.cont
  invoke void @EC_KEY_free(ptr noundef nonnull %call3)
          to label %return unwind label %terminate.lpad.i

terminate.lpad.i:                                 ; preds = %if.then.i
  %2 = landingpad { ptr, i32 }
          catch ptr null
  %3 = extractvalue { ptr, i32 } %2, 0
  call void @__clang_call_terminate(ptr %3) #10
  unreachable

return:                                           ; preds = %if.then.i, %if.end, %cleanup, %entry
  %retval.1 = phi ptr [ null, %entry ], [ %call21, %cleanup ], [ null, %if.then.i ], [ null, %if.end ]
  ret ptr %retval.1
}